target datalayout = "e-m:e-p270:32:32-p271:32:32-p272:64:64-i64:64-i128:128-f80:128-n8:16:32:64-S128"
target triple = "x86_64-pc-linux-gnu"

%struct._object = type { %union.anon, ptr }
%union.anon = type { i64 }
%struct._lzma_state = type { ptr, ptr, ptr, ptr }
%struct.anon = type { i32, i32 }
%struct.lzma_options_lzma = type { i32, ptr, i32, i32, i32, i32, i32, i32, i32, i32, i32, i32, i32, i32, i32, i32, i32, i32, i32, i32, i32, i32, ptr, ptr }

@PyExc_ValueError = external global ptr, align 8
@parse_filter_spec_lzma.optnames = internal global [11 x ptr] [ptr @.str.6, ptr @.str.9, ptr @.str.10, ptr @.str.11, ptr @.str.12, ptr @.str.13, ptr @.str.14, ptr @.str.15, ptr @.str.16, ptr @.str.17, ptr null], align 16
@.str.9 = private unnamed_addr constant [7 x i8] c"preset\00", align 1
@.str.18 = private unnamed_addr constant [31 x i8] c"Invalid compression preset: %u\00", align 1
@.str.19 = private unnamed_addr constant [20 x i8] c"|OOO&O&O&O&O&O&O&O&\00", align 1
@.str.20 = private unnamed_addr constant [41 x i8] c"Invalid filter specifier for LZMA filter\00", align 1
@PyExc_OverflowError = external global ptr, align 8
@.str.21 = private unnamed_addr constant [34 x i8] c"Value too large for uint32_t type\00", align 1

; Function Attrs: alwaysinline nounwind uwtable
define internal i32 @_Py_IsImmortal(ptr noundef %0) #6 {
  %2 = alloca ptr, align 8
  store ptr %0, ptr %2, align 8, !tbaa !3
  %3 = load ptr, ptr %2, align 8, !tbaa !3
  %4 = getelementptr inbounds nuw %struct._object, ptr %3, i32 0, i32 0
  %5 = getelementptr inbounds nuw %struct.anon, ptr %4, i32 0, i32 0
  %6 = load i32, ptr %5, align 8, !tbaa !31
  %7 = icmp slt i32 %6, 0
  %8 = zext i1 %7 to i32
  ret i32 %8
}

; Function Attrs: alwaysinline nounwind uwtable
define internal void @Py_DECREF(ptr noundef %0) #6 {
  %2 = alloca ptr, align 8
  store ptr %0, ptr %2, align 8, !tbaa !3
  %3 = load ptr, ptr %2, align 8, !tbaa !3
  %4 = call i32 @_Py_IsImmortal(ptr noundef %3)
  %5 = icmp ne i32 %4, 0
  br i1 %5, label %6, label %7

6:                                                ; preds = %1
  br label %16

7:                                                ; preds = %1
  %8 = load ptr, ptr %2, align 8, !tbaa !3
  %9 = getelementptr inbounds nuw %struct._object, ptr %8, i32 0, i32 0
  %10 = getelementptr inbounds nuw %struct.anon, ptr %9, i32 0, i32 0
  %11 = load i32, ptr %10, align 8, !tbaa !31
  %12 = add i32 %11, -1
  store i32 %12, ptr %10, align 8, !tbaa !31
  %13 = icmp eq i32 %12, 0
  br i1 %13, label %14, label %16

14:                                               ; preds = %7
  %15 = load ptr, ptr %2, align 8, !tbaa !3
  call void @_Py_Dealloc(ptr noundef %15)
  br label %16

16:                                               ; preds = %6, %14, %7
  ret void
}

; Function Attrs: nounwind uwtable
define internal i32 @uint32_converter(ptr noundef %0, ptr noundef %1) #0 {
  %3 = alloca i32, align 4
  %4 = alloca ptr, align 8
  %5 = alloca ptr, align 8
  %6 = alloca i64, align 8
  %7 = alloca i32, align 4
  store ptr %0, ptr %4, align 8, !tbaa !3
  store ptr %1, ptr %5, align 8, !tbaa !8
  call void @llvm.lifetime.start.p0(i64 8, ptr %6) #9
  %8 = load ptr, ptr %4, align 8, !tbaa !3
  %9 = call i64 @PyLong_AsUnsignedLongLong(ptr noundef %8)
  store i64 %9, ptr %6, align 8, !tbaa !37
  %10 = call ptr @PyErr_Occurred()
  %11 = icmp ne ptr %10, null
  br i1 %11, label %12, label %13

12:                                               ; preds = %2
  store i32 0, ptr %3, align 4
  store i32 1, ptr %7, align 4
  br label %25

13:                                               ; preds = %2
  %14 = load i64, ptr %6, align 8, !tbaa !37
  %15 = trunc i64 %14 to i32
  %16 = zext i32 %15 to i64
  %17 = load i64, ptr %6, align 8, !tbaa !37
  %18 = icmp ne i64 %16, %17
  br i1 %18, label %19, label %21

19:                                               ; preds = %13
  %20 = load ptr, ptr @PyExc_OverflowError, align 8, !tbaa !3
  call void @PyErr_SetString(ptr noundef %20, ptr noundef @.str.21)
  store i32 0, ptr %3, align 4
  store i32 1, ptr %7, align 4
  br label %25

21:                                               ; preds = %13
  %22 = load i64, ptr %6, align 8, !tbaa !37
  %23 = trunc i64 %22 to i32
  %24 = load ptr, ptr %5, align 8, !tbaa !8
  store i32 %23, ptr %24, align 4, !tbaa !12
  store i32 1, ptr %3, align 4
  store i32 1, ptr %7, align 4
  br label %25

25:                                               ; preds = %21, %19, %12
  call void @llvm.lifetime.end.p0(i64 8, ptr %6) #9
  %26 = load i32, ptr %3, align 4
  ret i32 %26
}

; Function Attrs: nounwind uwtable
define internal ptr @parse_filter_spec_lzma(ptr noundef %0, ptr noundef %1) #0 {
  %3 = alloca ptr, align 8
  %4 = alloca ptr, align 8
  %5 = alloca ptr, align 8
  %6 = alloca ptr, align 8
  %7 = alloca ptr, align 8
  %8 = alloca i32, align 4
  %9 = alloca ptr, align 8
  %10 = alloca i32, align 4
  %11 = alloca i32, align 4
  store ptr %0, ptr %4, align 8, !tbaa !8
  store ptr %1, ptr %5, align 8, !tbaa !3
  call void @llvm.lifetime.start.p0(i64 8, ptr %6) #9
  call void @llvm.lifetime.start.p0(i64 8, ptr %7) #9
  call void @llvm.lifetime.start.p0(i64 4, ptr %8) #9
  store i32 6, ptr %8, align 4, !tbaa !12
  call void @llvm.lifetime.start.p0(i64 8, ptr %9) #9
  %12 = load ptr, ptr %5, align 8, !tbaa !3
  %13 = call i32 @PyMapping_GetOptionalItemString(ptr noundef %12, ptr noundef @.str.9, ptr noundef %7)
  %14 = icmp slt i32 %13, 0
  br i1 %14, label %15, label %16

15:                                               ; preds = %2
  store ptr null, ptr %3, align 8
  store i32 1, ptr %10, align 4
  br label %76

16:                                               ; preds = %2
  %17 = load ptr, ptr %7, align 8, !tbaa !3
  %18 = icmp ne ptr %17, null
  br i1 %18, label %19, label %30

19:                                               ; preds = %16
  call void @llvm.lifetime.start.p0(i64 4, ptr %11) #9
  %20 = load ptr, ptr %7, align 8, !tbaa !3
  %21 = call i32 @uint32_converter(ptr noundef %20, ptr noundef %8)
  store i32 %21, ptr %11, align 4, !tbaa !12
  %22 = load ptr, ptr %7, align 8, !tbaa !3
  call void @Py_DECREF(ptr noundef %22)
  %23 = load i32, ptr %11, align 4, !tbaa !12
  %24 = icmp ne i32 %23, 0
  br i1 %24, label %26, label %25

25:                                               ; preds = %19
  store ptr null, ptr %3, align 8
  store i32 1, ptr %10, align 4
  br label %27

26:                                               ; preds = %19
  store i32 0, ptr %10, align 4
  br label %27

27:                                               ; preds = %26, %25
  call void @llvm.lifetime.end.p0(i64 4, ptr %11) #9
  %28 = load i32, ptr %10, align 4
  switch i32 %28, label %76 [
    i32 0, label %29
  ]

29:                                               ; preds = %27
  br label %30

30:                                               ; preds = %29, %16
  %31 = call ptr @PyMem_Calloc(i64 noundef 1, i64 noundef 112)
  store ptr %31, ptr %9, align 8, !tbaa !8
  %32 = load ptr, ptr %9, align 8, !tbaa !8
  %33 = icmp eq ptr %32, null
  br i1 %33, label %34, label %36

34:                                               ; preds = %30
  %35 = call ptr @PyErr_NoMemory()
  store ptr %35, ptr %3, align 8
  store i32 1, ptr %10, align 4
  br label %76

36:                                               ; preds = %30
  %37 = load ptr, ptr %9, align 8, !tbaa !8
  %38 = load i32, ptr %8, align 4, !tbaa !12
  %39 = call zeroext i8 @lzma_lzma_preset(ptr noundef %37, i32 noundef %38) #9
  %40 = icmp ne i8 %39, 0
  br i1 %40, label %41, label %48

41:                                               ; preds = %36
  %42 = load ptr, ptr %9, align 8, !tbaa !8
  call void @PyMem_Free(ptr noundef %42)
  %43 = load ptr, ptr %4, align 8, !tbaa !8
  %44 = getelementptr inbounds nuw %struct._lzma_state, ptr %43, i32 0, i32 2
  %45 = load ptr, ptr %44, align 8, !tbaa !15
  %46 = load i32, ptr %8, align 4, !tbaa !12
  %47 = call ptr (ptr, ptr, ...) @PyErr_Format(ptr noundef %45, ptr noundef @.str.18, i32 noundef %46)
  store ptr null, ptr %3, align 8
  store i32 1, ptr %10, align 4
  br label %76

48:                                               ; preds = %36
  %49 = load ptr, ptr %4, align 8, !tbaa !8
  %50 = getelementptr inbounds nuw %struct._lzma_state, ptr %49, i32 0, i32 3
  %51 = load ptr, ptr %50, align 8, !tbaa !16
  %52 = load ptr, ptr %5, align 8, !tbaa !3
  %53 = load ptr, ptr %9, align 8, !tbaa !8
  %54 = getelementptr inbounds nuw %struct.lzma_options_lzma, ptr %53, i32 0, i32 0
  %55 = load ptr, ptr %9, align 8, !tbaa !8
  %56 = getelementptr inbounds nuw %struct.lzma_options_lzma, ptr %55, i32 0, i32 3
  %57 = load ptr, ptr %9, align 8, !tbaa !8
  %58 = getelementptr inbounds nuw %struct.lzma_options_lzma, ptr %57, i32 0, i32 4
  %59 = load ptr, ptr %9, align 8, !tbaa !8
  %60 = getelementptr inbounds nuw %struct.lzma_options_lzma, ptr %59, i32 0, i32 5
  %61 = load ptr, ptr %9, align 8, !tbaa !8
  %62 = getelementptr inbounds nuw %struct.lzma_options_lzma, ptr %61, i32 0, i32 6
  %63 = load ptr, ptr %9, align 8, !tbaa !8
  %64 = getelementptr inbounds nuw %struct.lzma_options_lzma, ptr %63, i32 0, i32 7
  %65 = load ptr, ptr %9, align 8, !tbaa !8
  %66 = getelementptr inbounds nuw %struct.lzma_options_lzma, ptr %65, i32 0, i32 8
  %67 = load ptr, ptr %9, align 8, !tbaa !8
  %68 = getelementptr inbounds nuw %struct.lzma_options_lzma, ptr %67, i32 0, i32 9
  %69 = call i32 (ptr, ptr, ptr, ptr, ...) @PyArg_ParseTupleAndKeywords(ptr noundef %51, ptr noundef %52, ptr noundef @.str.19, ptr noundef @parse_filter_spec_lzma.optnames, ptr noundef %6, ptr noundef %7, ptr noundef @uint32_converter, ptr noundef %54, ptr noundef @uint32_converter, ptr noundef %56, ptr noundef @uint32_converter, ptr noundef %58, ptr noundef @uint32_converter, ptr noundef %60, ptr noundef @lzma_mode_converter, ptr noundef %62, ptr noundef @uint32_converter, ptr noundef %64, ptr noundef @lzma_mf_converter, ptr noundef %66, ptr noundef @uint32_converter, ptr noundef %68)
  %70 = icmp ne i32 %69, 0
  br i1 %70, label %74, label %71

71:                                               ; preds = %48
  %72 = load ptr, ptr @PyExc_ValueError, align 8, !tbaa !3
  call void @PyErr_SetString(ptr noundef %72, ptr noundef @.str.20)
  %73 = load ptr, ptr %9, align 8, !tbaa !8
  call void @PyMem_Free(ptr noundef %73)
  store ptr null, ptr %3, align 8
  store i32 1, ptr %10, align 4
  br label %76

74:                                               ; preds = %48
  %75 = load ptr, ptr %9, align 8, !tbaa !8
  store ptr %75, ptr %3, align 8
  store i32 1, ptr %10, align 4
  br label %76

76:                                               ; preds = %74, %71, %41, %34, %27, %15
  call void @llvm.lifetime.end.p0(i64 8, ptr %9) #9
  call void @llvm.lifetime.end.p0(i64 4, ptr %8) #9
  call void @llvm.lifetime.end.p0(i64 8, ptr %7) #9
  call void @llvm.lifetime.end.p0(i64 8, ptr %6) #9
  %77 = load ptr, ptr %3, align 8
  ret ptr %77
}