; Function Attrs: nounwind uwtable
define internal fastcc ptr @parse_filter_spec_lzma(ptr noundef readonly captures(none) %0, ptr noundef %1) unnamed_addr #0 {
  %3 = alloca ptr, align 8
  %4 = alloca ptr, align 8
  call void @llvm.lifetime.start.p0(i64 8, ptr nonnull %3) #10
  call void @llvm.lifetime.start.p0(i64 8, ptr nonnull %4) #10
  %5 = call i32 @PyMapping_GetOptionalItemString(ptr noundef %1, ptr noundef nonnull @.str.9, ptr noundef nonnull %4) #10
  %6 = icmp slt i32 %5, 0
  br i1 %6, label %47, label %7

7:                                                ; preds = %2
  %8 = load ptr, ptr %4, align 8, !tbaa !15
  %.not = icmp eq ptr %8, null
  br i1 %.not, label %23, label %9

9:                                                ; preds = %7
  %10 = call i64 @PyLong_AsUnsignedLongLong(ptr noundef nonnull %8) #10
  %11 = call ptr @PyErr_Occurred() #10
  %.not.i25 = icmp eq ptr %11, null
  br i1 %.not.i25, label %12, label %uint32_converter.exit

12:                                               ; preds = %9
  %.not5.i = icmp ult i64 %10, 4294967296
  br i1 %.not5.i, label %15, label %13

13:                                               ; preds = %12
  %14 = load ptr, ptr @PyExc_OverflowError, align 8, !tbaa !15
  call void @PyErr_SetString(ptr noundef %14, ptr noundef nonnull @.str.21) #10
  br label %uint32_converter.exit

15:                                               ; preds = %12
  %16 = trunc nuw i64 %10 to i32
  br label %uint32_converter.exit

uint32_converter.exit:                            ; preds = %9, %13, %15
  %.1 = phi i32 [ %16, %15 ], [ 6, %13 ], [ 6, %9 ]
  %.not22.not = phi i1 [ false, %15 ], [ true, %13 ], [ true, %9 ]
  %17 = load ptr, ptr %4, align 8, !tbaa !15
  %18 = load i32, ptr %17, align 8, !tbaa !14
  %.not.i = icmp sgt i32 %18, -1
  br i1 %.not.i, label %19, label %Py_DECREF.exit

19:                                               ; preds = %uint32_converter.exit
  %20 = add nsw i32 %18, -1
  store i32 %20, ptr %17, align 8, !tbaa !14
  %21 = icmp eq i32 %20, 0
  br i1 %21, label %22, label %Py_DECREF.exit

22:                                               ; preds = %19
  call void @_Py_Dealloc(ptr noundef nonnull %17) #10
  br label %Py_DECREF.exit

Py_DECREF.exit:                                   ; preds = %uint32_converter.exit, %19, %22
  br i1 %.not22.not, label %47, label %23

23:                                               ; preds = %Py_DECREF.exit, %7
  %.027 = phi i32 [ 6, %7 ], [ %.1, %Py_DECREF.exit ]
  %24 = call ptr @PyMem_Calloc(i64 noundef 1, i64 noundef 112) #10
  %25 = icmp eq ptr %24, null
  br i1 %25, label %26, label %28

26:                                               ; preds = %23
  %27 = call ptr @PyErr_NoMemory() #10
  br label %47

28:                                               ; preds = %23
  %29 = call zeroext i8 @lzma_lzma_preset(ptr noundef nonnull %24, i32 noundef %.027) #10
  %.not23 = icmp eq i8 %29, 0
  br i1 %.not23, label %34, label %30

30:                                               ; preds = %28
  call void @PyMem_Free(ptr noundef nonnull %24) #10
  %31 = getelementptr inbounds nuw i8, ptr %0, i64 16
  %32 = load ptr, ptr %31, align 8, !tbaa !11
  %33 = call ptr (ptr, ptr, ...) @PyErr_Format(ptr noundef %32, ptr noundef nonnull @.str.18, i32 noundef %.027) #10
  br label %47

34:                                               ; preds = %28
  %35 = getelementptr inbounds nuw i8, ptr %0, i64 24
  %36 = load ptr, ptr %35, align 8, !tbaa !12
  %37 = getelementptr inbounds nuw i8, ptr %24, i64 20
  %38 = getelementptr inbounds nuw i8, ptr %24, i64 24
  %39 = getelementptr inbounds nuw i8, ptr %24, i64 28
  %40 = getelementptr inbounds nuw i8, ptr %24, i64 32
  %41 = getelementptr inbounds nuw i8, ptr %24, i64 36
  %42 = getelementptr inbounds nuw i8, ptr %24, i64 40
  %43 = getelementptr inbounds nuw i8, ptr %24, i64 44
  %44 = call i32 (ptr, ptr, ptr, ptr, ...) @PyArg_ParseTupleAndKeywords(ptr noundef %36, ptr noundef %1, ptr noundef nonnull @.str.19, ptr noundef nonnull @parse_filter_spec_lzma.optnames, ptr noundef nonnull %3, ptr noundef nonnull %4, ptr noundef nonnull @uint32_converter, ptr noundef nonnull %24, ptr noundef nonnull @uint32_converter, ptr noundef nonnull %37, ptr noundef nonnull @uint32_converter, ptr noundef nonnull %38, ptr noundef nonnull @uint32_converter, ptr noundef nonnull %39, ptr noundef nonnull @lzma_mode_converter, ptr noundef nonnull %40, ptr noundef nonnull @uint32_converter, ptr noundef nonnull %41, ptr noundef nonnull @lzma_mf_converter, ptr noundef nonnull %42, ptr noundef nonnull @uint32_converter, ptr noundef nonnull %43) #10
  %.not24 = icmp eq i32 %44, 0
  br i1 %.not24, label %45, label %47

45:                                               ; preds = %34
  %46 = load ptr, ptr @PyExc_ValueError, align 8, !tbaa !15
  call void @PyErr_SetString(ptr noundef %46, ptr noundef nonnull @.str.20) #10
  call void @PyMem_Free(ptr noundef nonnull %24) #10
  br label %47

47:                                               ; preds = %34, %2, %Py_DECREF.exit, %45, %30, %26
  %.0 = phi ptr [ %27, %26 ], [ null, %30 ], [ null, %45 ], [ null, %Py_DECREF.exit ], [ null, %2 ], [ %24, %34 ]
  call void @llvm.lifetime.end.p0(i64 8, ptr nonnull %4) #10
  call void @llvm.lifetime.end.p0(i64 8, ptr nonnull %3) #10
  ret ptr %.0
}